target datalayout = "e-m:e-p270:32:32-p271:32:32-p272:64:64-i64:64-i128:128-f80:128-n8:16:32:64-S128"
target triple = "x86_64-pc-linux-gnu"

@.str.180 = private unnamed_addr constant [7 x i32] [i32 115, i32 116, i32 114, i32 105, i32 99, i32 116, i32 0], align 4
@.str.181 = private unnamed_addr constant [16 x i32] [i32 115, i32 117, i32 114, i32 114, i32 111, i32 103, i32 97, i32 116, i32 101, i32 101, i32 115, i32 99, i32 97, i32 112, i32 101, i32 0], align 4
@.str.182 = private unnamed_addr constant [8 x i32] [i32 114, i32 101, i32 112, i32 108, i32 97, i32 99, i32 101, i32 0], align 4
@.str.183 = private unnamed_addr constant [7 x i32] [i32 105, i32 103, i32 110, i32 111, i32 114, i32 101, i32 0], align 4
@.str.184 = private unnamed_addr constant [17 x i32] [i32 98, i32 97, i32 99, i32 107, i32 115, i32 108, i32 97, i32 115, i32 104, i32 114, i32 101, i32 112, i32 108, i32 97, i32 99, i32 101, i32 0], align 4
@.str.185 = private unnamed_addr constant [14 x i32] [i32 115, i32 117, i32 114, i32 114, i32 111, i32 103, i32 97, i32 116, i32 101, i32 112, i32 97, i32 115, i32 115, i32 0], align 4
@.str.186 = private unnamed_addr constant [18 x i32] [i32 120, i32 109, i32 108, i32 99, i32 104, i32 97, i32 114, i32 114, i32 101, i32 102, i32 114, i32 101, i32 112, i32 108, i32 97, i32 99, i32 101, i32 0], align 4

; Function Attrs: nounwind uwtable
define internal i32 @get_error_handler_wide(ptr noundef %0) #0 {
  %2 = alloca i32, align 4
  %3 = alloca ptr, align 8
  store ptr %0, ptr %3, align 8, !tbaa !210
  %4 = load ptr, ptr %3, align 8, !tbaa !210
  %5 = icmp eq ptr %4, null
  br i1 %5, label %10, label %6

6:                                                ; preds = %1
  %7 = load ptr, ptr %3, align 8, !tbaa !210
  %8 = call i32 @wcscmp(ptr noundef %7, ptr noundef @.str.180) #13
  %9 = icmp eq i32 %8, 0
  br i1 %9, label %10, label %11

10:                                               ; preds = %6, %1
  store i32 1, ptr %2, align 4
  br label %42

11:                                               ; preds = %6
  %12 = load ptr, ptr %3, align 8, !tbaa !210
  %13 = call i32 @wcscmp(ptr noundef %12, ptr noundef @.str.181) #13
  %14 = icmp eq i32 %13, 0
  br i1 %14, label %15, label %16

15:                                               ; preds = %11
  store i32 2, ptr %2, align 4
  br label %42

16:                                               ; preds = %11
  %17 = load ptr, ptr %3, align 8, !tbaa !210
  %18 = call i32 @wcscmp(ptr noundef %17, ptr noundef @.str.182) #13
  %19 = icmp eq i32 %18, 0
  br i1 %19, label %20, label %21

20:                                               ; preds = %16
  store i32 3, ptr %2, align 4
  br label %42

21:                                               ; preds = %16
  %22 = load ptr, ptr %3, align 8, !tbaa !210
  %23 = call i32 @wcscmp(ptr noundef %22, ptr noundef @.str.183) #13
  %24 = icmp eq i32 %23, 0
  br i1 %24, label %25, label %26

25:                                               ; preds = %21
  store i32 4, ptr %2, align 4
  br label %42

26:                                               ; preds = %21
  %27 = load ptr, ptr %3, align 8, !tbaa !210
  %28 = call i32 @wcscmp(ptr noundef %27, ptr noundef @.str.184) #13
  %29 = icmp eq i32 %28, 0
  br i1 %29, label %30, label %31

30:                                               ; preds = %26
  store i32 5, ptr %2, align 4
  br label %42

31:                                               ; preds = %26
  %32 = load ptr, ptr %3, align 8, !tbaa !210
  %33 = call i32 @wcscmp(ptr noundef %32, ptr noundef @.str.185) #13
  %34 = icmp eq i32 %33, 0
  br i1 %34, label %35, label %36

35:                                               ; preds = %31
  store i32 6, ptr %2, align 4
  br label %42

36:                                               ; preds = %31
  %37 = load ptr, ptr %3, align 8, !tbaa !210
  %38 = call i32 @wcscmp(ptr noundef %37, ptr noundef @.str.186) #13
  %39 = icmp eq i32 %38, 0
  br i1 %39, label %40, label %41

40:                                               ; preds = %36
  store i32 7, ptr %2, align 4
  br label %42

41:                                               ; preds = %36
  store i32 8, ptr %2, align 4
  br label %42

42:                                               ; preds = %41, %40, %35, %30, %25, %20, %15, %10
  %43 = load i32, ptr %2, align 4
  ret i32 %43
}