; Function Attrs: mustprogress nofree nounwind willreturn memory(read) uwtable
define internal fastcc range(i32 1, 9) i32 @get_error_handler_wide(ptr noundef readonly %0) unnamed_addr #15 {
  %2 = icmp eq ptr %0, null
  br i1 %2, label %24, label %3

3:                                                ; preds = %1
  %4 = tail call i32 @wcscmp(ptr noundef nonnull %0, ptr noundef nonnull @.str.180) #42
  %5 = icmp eq i32 %4, 0
  br i1 %5, label %24, label %6

6:                                                ; preds = %3
  %7 = tail call i32 @wcscmp(ptr noundef nonnull %0, ptr noundef nonnull @.str.181) #42
  %8 = icmp eq i32 %7, 0
  br i1 %8, label %24, label %9

9:                                                ; preds = %6
  %10 = tail call i32 @wcscmp(ptr noundef nonnull %0, ptr noundef nonnull @.str.182) #42
  %11 = icmp eq i32 %10, 0
  br i1 %11, label %24, label %12

12:                                               ; preds = %9
  %13 = tail call i32 @wcscmp(ptr noundef nonnull %0, ptr noundef nonnull @.str.183) #42
  %14 = icmp eq i32 %13, 0
  br i1 %14, label %24, label %15

15:                                               ; preds = %12
  %16 = tail call i32 @wcscmp(ptr noundef nonnull %0, ptr noundef nonnull @.str.184) #42
  %17 = icmp eq i32 %16, 0
  br i1 %17, label %24, label %18

18:                                               ; preds = %15
  %19 = tail call i32 @wcscmp(ptr noundef nonnull %0, ptr noundef nonnull @.str.185) #42
  %20 = icmp eq i32 %19, 0
  br i1 %20, label %24, label %21

21:                                               ; preds = %18
  %22 = tail call i32 @wcscmp(ptr noundef nonnull %0, ptr noundef nonnull @.str.186) #42
  %23 = icmp eq i32 %22, 0
  %. = select i1 %23, i32 7, i32 8
  br label %24

24:                                               ; preds = %21, %18, %15, %12, %9, %6, %1, %3
  %.0 = phi i32 [ 1, %3 ], [ 1, %1 ], [ 2, %6 ], [ 3, %9 ], [ 4, %12 ], [ 5, %15 ], [ 6, %18 ], [ %., %21 ]
  ret i32 %.0
}